target datalayout = "e-m:e-p270:32:32-p271:32:32-p272:64:64-i64:64-i128:128-f80:128-n8:16:32:64-S128"
target triple = "x86_64-unknown-linux-gnu"

%"class.proxygen::HeaderTable" = type { ptr, i32, i32, %"class.std::vector", i32, i32, i32, i8, %"class.folly::F14FastMap" }
%"class.std::vector" = type { %"struct.std::_Vector_base" }
%"struct.std::_Vector_base" = type { %"struct.std::_Vector_base<proxygen::HPACKHeader, std::allocator<proxygen::HPACKHeader>>::_Vector_impl" }
%"struct.std::_Vector_base<proxygen::HPACKHeader, std::allocator<proxygen::HPACKHeader>>::_Vector_impl" = type { %"struct.std::_Vector_base<proxygen::HPACKHeader, std::allocator<proxygen::HPACKHeader>>::_Vector_impl_data" }
%"struct.std::_Vector_base<proxygen::HPACKHeader, std::allocator<proxygen::HPACKHeader>>::_Vector_impl_data" = type { ptr, ptr, ptr }
%"class.folly::F14FastMap" = type { %"class.folly::f14::detail::F14VectorMapImpl" }
%"class.folly::f14::detail::F14VectorMapImpl" = type { %"class.folly::f14::detail::F14BasicMap" }
%"class.folly::f14::detail::F14BasicMap" = type { %"class.folly::f14::detail::F14Table" }
%"class.folly::f14::detail::F14Table" = type { %"class.folly::f14::detail::VectorContainerPolicy", ptr, %"struct.folly::f14::detail::SizeAndChunkShiftAndPackedBegin" }
%"class.folly::f14::detail::VectorContainerPolicy" = type { ptr }
%"struct.folly::f14::detail::SizeAndChunkShiftAndPackedBegin" = type { %"struct.folly::f14::detail::PackedSizeAndChunkShift" }
%"struct.folly::f14::detail::PackedSizeAndChunkShift" = type { i64 }
%"class.google::LogMessage" = type { ptr, ptr, %"struct.google::LogMessageTime" }
%"struct.google::LogMessageTime" = type { %struct.tm, i64, i32, i64 }
%struct.tm = type { i32, i32, i32, i32, i32, i32, i32, i32, i32, i64, ptr }
%"class.proxygen::HPACKHeader" = type { %"class.proxygen::HPACKHeaderName", %"class.folly::basic_fbstring" }
%"class.proxygen::HPACKHeaderName" = type { ptr }
%"class.folly::basic_fbstring" = type { %"class.folly::fbstring_core" }
%"class.folly::fbstring_core" = type { %union.anon }
%union.anon = type { %"struct.folly::fbstring_core<char>::MediumLarge" }
%"struct.folly::fbstring_core<char>::MediumLarge" = type { ptr, i64, i64 }
%"class.google::LogMessageFatal" = type { %"class.google::LogMessage" }
%"class.google::LogMessageVoidify" = type { i8 }

@.str = private unnamed_addr constant [149 x i8] c"generated/home/dtcxzyw/WorkSpace/Projects/compilers/llvm-opt-benchmark/bench/proxygen/proxygen/proxygen/lib/http/codec/compress/QPACKHeaderTable.cpp\00", align 1
@.str.6 = private unnamed_addr constant [36 x i8] c"Check failed: isValid(index, base) \00", align 1

; Function Attrs: mustprogress nounwind uwtable
define linkonce_odr noundef nonnull align 8 dereferenceable(32) ptr @_ZNKSt6vectorIN8proxygen11HPACKHeaderESaIS1_EEixEm(ptr noundef nonnull align 8 dereferenceable(24) %this, i64 noundef %__n) #5 comdat align 2 {
entry:
  %this.addr = alloca ptr, align 8
  %__n.addr = alloca i64, align 8
  store ptr %this, ptr %this.addr, align 8
  store i64 %__n, ptr %__n.addr, align 8
  %this1 = load ptr, ptr %this.addr, align 8
  %_M_impl = getelementptr inbounds %"struct.std::_Vector_base", ptr %this1, i32 0, i32 0
  %_M_start = getelementptr inbounds %"struct.std::_Vector_base<proxygen::HPACKHeader, std::allocator<proxygen::HPACKHeader>>::_Vector_impl_data", ptr %_M_impl, i32 0, i32 0
  %0 = load ptr, ptr %_M_start, align 8
  %1 = load i64, ptr %__n.addr, align 8
  %add.ptr = getelementptr inbounds %"class.proxygen::HPACKHeader", ptr %0, i64 %1
  ret ptr %add.ptr
}

; Function Attrs: mustprogress uwtable
define noundef i32 @_ZNK8proxygen16QPACKHeaderTable10toInternalEjj(ptr noundef nonnull align 8 dereferenceable(104) %this, i32 noundef %externalIndex, i32 noundef %base) #4 align 2 {
entry:
  %this.addr = alloca ptr, align 8
  %externalIndex.addr = alloca i32, align 4
  %base.addr = alloca i32, align 4
  %absIndex = alloca i32, align 4
  store ptr %this, ptr %this.addr, align 8
  store i32 %externalIndex, ptr %externalIndex.addr, align 4
  store i32 %base, ptr %base.addr, align 4
  %this1 = load ptr, ptr %this.addr, align 8
  %0 = load i32, ptr %base.addr, align 4
  %cmp = icmp ugt i32 %0, 0
  br i1 %cmp, label %if.then, label %if.end

if.then:                                          ; preds = %entry
  %1 = load i32, ptr %base.addr, align 4
  %2 = load i32, ptr %externalIndex.addr, align 4
  %sub = sub i32 %1, %2
  %add = add i32 %sub, 1
  store i32 %add, ptr %absIndex, align 4
  %3 = load i32, ptr %absIndex, align 4
  %call = call noundef i32 @_ZNK8proxygen16QPACKHeaderTable18absoluteToRelativeEj(ptr noundef nonnull align 8 dereferenceable(104) %this1, i32 noundef %3)
  store i32 %call, ptr %externalIndex.addr, align 4
  br label %if.end

if.end:                                           ; preds = %if.then, %entry
  %4 = load i32, ptr %externalIndex.addr, align 4
  %call2 = call noundef i32 @_ZNK8proxygen11HeaderTable10toInternalEj(ptr noundef nonnull align 8 dereferenceable(80) %this1, i32 noundef %4)
  ret i32 %call2
}

; Function Attrs: mustprogress nounwind uwtable
define linkonce_odr void @_ZN6google17LogMessageVoidifyanERSo(ptr noundef nonnull align 1 dereferenceable(1) %this, ptr noundef nonnull align 8 dereferenceable(8) %0) #5 comdat align 2 {
entry:
  %this.addr = alloca ptr, align 8
  %.addr = alloca ptr, align 8
  store ptr %this, ptr %this.addr, align 8
  store ptr %0, ptr %.addr, align 8
  ret void
}

; Function Attrs: mustprogress nounwind uwtable
define linkonce_odr void @_ZN6google17LogMessageVoidifyC2Ev(ptr noundef nonnull align 1 dereferenceable(1) %this) unnamed_addr #5 comdat align 2 {
entry:
  %this.addr = alloca ptr, align 8
  store ptr %this, ptr %this.addr, align 8
  ret void
}

; Function Attrs: mustprogress uwtable
define noundef zeroext i1 @_ZNK8proxygen16QPACKHeaderTable7isValidEjj(ptr noundef nonnull align 8 dereferenceable(104) %this, i32 noundef %index, i32 noundef %base) #4 align 2 {
entry:
  %this.addr = alloca ptr, align 8
  %index.addr = alloca i32, align 4
  %base.addr = alloca i32, align 4
  %testIndex = alloca i64, align 8
  %baseOffset = alloca i64, align 8
  store ptr %this, ptr %this.addr, align 8
  store i32 %index, ptr %index.addr, align 4
  store i32 %base, ptr %base.addr, align 4
  %this1 = load ptr, ptr %this.addr, align 8
  %0 = load i32, ptr %index.addr, align 4
  %conv = zext i32 %0 to i64
  store i64 %conv, ptr %testIndex, align 8
  %1 = load i32, ptr %base.addr, align 4
  %cmp = icmp ugt i32 %1, 0
  br i1 %cmp, label %if.then, label %if.end

if.then:                                          ; preds = %entry
  %2 = load i32, ptr %base.addr, align 4
  %conv2 = zext i32 %2 to i64
  %insertCount_ = getelementptr inbounds %"class.proxygen::HeaderTable", ptr %this1, i32 0, i32 6
  %3 = load i32, ptr %insertCount_, align 8
  %conv3 = zext i32 %3 to i64
  %sub = sub nsw i64 %conv2, %conv3
  store i64 %sub, ptr %baseOffset, align 8
  %4 = load i64, ptr %baseOffset, align 8
  %5 = load i64, ptr %testIndex, align 8
  %sub4 = sub nsw i64 %5, %4
  store i64 %sub4, ptr %testIndex, align 8
  br label %if.end

if.end:                                           ; preds = %if.then, %entry
  %6 = load i64, ptr %testIndex, align 8
  %conv5 = trunc i64 %6 to i32
  %call = call noundef zeroext i1 @_ZNK8proxygen11HeaderTable7isValidEj(ptr noundef nonnull align 8 dereferenceable(80) %this1, i32 noundef %conv5)
  ret i1 %call
}

; Function Attrs: mustprogress uwtable
define noundef nonnull align 8 dereferenceable(32) ptr @_ZNK8proxygen16QPACKHeaderTable9getHeaderEjj(ptr noundef nonnull align 8 dereferenceable(104) %this, i32 noundef %index, i32 noundef %base) #4 align 2 personality ptr @__gxx_personality_v0 {
entry:
  %this.addr = alloca ptr, align 8
  %index.addr = alloca i32, align 4
  %base.addr = alloca i32, align 4
  %ref.tmp = alloca %"class.google::LogMessageVoidify", align 1
  %ref.tmp2 = alloca %"class.google::LogMessageFatal", align 8
  %cleanup.cond = alloca i1, align 1
  %exn.slot = alloca ptr, align 8
  %ehselector.slot = alloca i32, align 4
  store ptr %this, ptr %this.addr, align 8
  store i32 %index, ptr %index.addr, align 4
  store i32 %base, ptr %base.addr, align 4
  %this1 = load ptr, ptr %this.addr, align 8
  %0 = load i32, ptr %index.addr, align 4
  %1 = load i32, ptr %base.addr, align 4
  %call = call noundef zeroext i1 @_ZNK8proxygen16QPACKHeaderTable7isValidEjj(ptr noundef nonnull align 8 dereferenceable(104) %this1, i32 noundef %0, i32 noundef %1)
  %lnot = xor i1 %call, true
  store i1 false, ptr %cleanup.cond, align 1
  br i1 %lnot, label %cond.false, label %cond.true

cond.true:                                        ; preds = %entry
  br label %cond.end

cond.false:                                       ; preds = %entry
  call void @_ZN6google17LogMessageVoidifyC2Ev(ptr noundef nonnull align 1 dereferenceable(1) %ref.tmp)
  call void @_ZN6google15LogMessageFatalC1EPKci(ptr noundef nonnull align 8 dereferenceable(96) %ref.tmp2, ptr noundef @.str, i32 noundef 132)
  store i1 true, ptr %cleanup.cond, align 1
  %call3 = invoke noundef nonnull align 8 dereferenceable(8) ptr @_ZN6google10LogMessage6streamEv(ptr noundef nonnull align 8 dereferenceable(96) %ref.tmp2)
          to label %invoke.cont unwind label %lpad

invoke.cont:                                      ; preds = %cond.false
  %call5 = invoke noundef nonnull align 8 dereferenceable(8) ptr @_ZStlsISt11char_traitsIcEERSt13basic_ostreamIcT_ES5_PKc(ptr noundef nonnull align 8 dereferenceable(8) %call3, ptr noundef @.str.6)
          to label %invoke.cont4 unwind label %lpad

invoke.cont4:                                     ; preds = %invoke.cont
  invoke void @_ZN6google17LogMessageVoidifyanERSo(ptr noundef nonnull align 1 dereferenceable(1) %ref.tmp, ptr noundef nonnull align 8 dereferenceable(8) %call5)
          to label %invoke.cont6 unwind label %lpad

invoke.cont6:                                     ; preds = %invoke.cont4
  br label %cond.end

cond.end:                                         ; preds = %invoke.cont6, %cond.true
  %cleanup.is_active = load i1, ptr %cleanup.cond, align 1
  br i1 %cleanup.is_active, label %cleanup.action, label %cleanup.done

cleanup.action:                                   ; preds = %cond.end
  call void @_ZN6google15LogMessageFatalD1Ev(ptr noundef nonnull align 8 dereferenceable(96) %ref.tmp2) #24
  unreachable

lpad:                                             ; preds = %invoke.cont4, %invoke.cont, %cond.false
  %2 = landingpad { ptr, i32 }
          cleanup
  %3 = extractvalue { ptr, i32 } %2, 0
  store ptr %3, ptr %exn.slot, align 8
  %4 = extractvalue { ptr, i32 } %2, 1
  store i32 %4, ptr %ehselector.slot, align 4
  %cleanup.is_active7 = load i1, ptr %cleanup.cond, align 1
  br i1 %cleanup.is_active7, label %cleanup.action8, label %cleanup.done9

5:                                                ; No predecessors!
  br label %cleanup.done

cleanup.done:                                     ; preds = %5, %cond.end
  %table_ = getelementptr inbounds %"class.proxygen::HeaderTable", ptr %this1, i32 0, i32 3
  %6 = load i32, ptr %index.addr, align 4
  %7 = load i32, ptr %base.addr, align 4
  %call10 = call noundef i32 @_ZNK8proxygen16QPACKHeaderTable10toInternalEjj(ptr noundef nonnull align 8 dereferenceable(104) %this1, i32 noundef %6, i32 noundef %7)
  %conv = zext i32 %call10 to i64
  %call11 = call noundef nonnull align 8 dereferenceable(32) ptr @_ZNKSt6vectorIN8proxygen11HPACKHeaderESaIS1_EEixEm(ptr noundef nonnull align 8 dereferenceable(24) %table_, i64 noundef %conv) #3
  ret ptr %call11

cleanup.action8:                                  ; preds = %lpad
  call void @_ZN6google15LogMessageFatalD1Ev(ptr noundef nonnull align 8 dereferenceable(96) %ref.tmp2) #24
  unreachable

8:                                                ; No predecessors!
  br label %cleanup.done9

cleanup.done9:                                    ; preds = %8, %lpad
  br label %eh.resume

eh.resume:                                        ; preds = %cleanup.done9
  %exn = load ptr, ptr %exn.slot, align 8
  %sel = load i32, ptr %ehselector.slot, align 4
  %lpad.val = insertvalue { ptr, i32 } poison, ptr %exn, 0
  %lpad.val12 = insertvalue { ptr, i32 } %lpad.val, i32 %sel, 1
  resume { ptr, i32 } %lpad.val12
}