; Function Attrs: mustprogress uwtable
define noundef nonnull align 8 dereferenceable(32) ptr @_ZNK8proxygen16QPACKHeaderTable9getHeaderEjj(ptr noundef nonnull align 8 dereferenceable(104) %this, i32 noundef %index, i32 noundef %base) local_unnamed_addr #3 align 2 personality ptr @__gxx_personality_v0 {
entry:
  %ref.tmp2 = alloca %"class.google::LogMessageFatal", align 8
  %cmp.not.i = icmp eq i32 %base, 0
  %insertCount_.i = getelementptr inbounds i8, ptr %this, i64 48
  %0 = load i32, ptr %insertCount_.i, align 8
  %sub.neg.i = sub i32 %0, %base
  %sub4.i = select i1 %cmp.not.i, i32 0, i32 %sub.neg.i
  %testIndex.0.i = add i32 %sub4.i, %index
  %call.i = tail call noundef zeroext i1 @_ZNK8proxygen11HeaderTable7isValidEj(ptr noundef nonnull align 8 dereferenceable(80) %this, i32 noundef %testIndex.0.i)
  br i1 %call.i, label %cleanup.done, label %cond.false

cond.false:                                       ; preds = %entry
  call void @_ZN6google15LogMessageFatalC1EPKci(ptr noundef nonnull align 8 dereferenceable(96) %ref.tmp2, ptr noundef nonnull @.str, i32 noundef 132)
  %call3 = invoke noundef nonnull align 8 dereferenceable(8) ptr @_ZN6google10LogMessage6streamEv(ptr noundef nonnull align 8 dereferenceable(96) %ref.tmp2)
          to label %invoke.cont unwind label %lpad

invoke.cont:                                      ; preds = %cond.false
  %call5 = invoke noundef nonnull align 8 dereferenceable(8) ptr @_ZStlsISt11char_traitsIcEERSt13basic_ostreamIcT_ES5_PKc(ptr noundef nonnull align 8 dereferenceable(8) %call3, ptr noundef nonnull @.str.6)
          to label %cleanup.action unwind label %lpad

cleanup.action:                                   ; preds = %invoke.cont
  call void @_ZN6google15LogMessageFatalD1Ev(ptr noundef nonnull align 8 dereferenceable(96) %ref.tmp2) #29
  unreachable

lpad:                                             ; preds = %invoke.cont, %cond.false
  %1 = landingpad { ptr, i32 }
          cleanup
  call void @_ZN6google15LogMessageFatalD1Ev(ptr noundef nonnull align 8 dereferenceable(96) %ref.tmp2) #29
  unreachable

cleanup.done:                                     ; preds = %entry
  br i1 %cmp.not.i, label %_ZNK8proxygen16QPACKHeaderTable10toInternalEjj.exit, label %if.then.i

if.then.i:                                        ; preds = %cleanup.done
  %reass.sub = sub i32 %base, %index
  %add.i = add i32 %reass.sub, 1
  %call.i4 = tail call noundef i32 @_ZNK8proxygen16QPACKHeaderTable18absoluteToRelativeEj(ptr noundef nonnull align 8 dereferenceable(104) %this, i32 noundef %add.i)
  br label %_ZNK8proxygen16QPACKHeaderTable10toInternalEjj.exit

_ZNK8proxygen16QPACKHeaderTable10toInternalEjj.exit: ; preds = %cleanup.done, %if.then.i
  %externalIndex.addr.0.i = phi i32 [ %call.i4, %if.then.i ], [ %index, %cleanup.done ]
  %table_ = getelementptr inbounds i8, ptr %this, i64 16
  %call2.i = tail call noundef i32 @_ZNK8proxygen11HeaderTable10toInternalEj(ptr noundef nonnull align 8 dereferenceable(80) %this, i32 noundef %externalIndex.addr.0.i)
  %conv = zext i32 %call2.i to i64
  %2 = load ptr, ptr %table_, align 8
  %add.ptr.i = getelementptr inbounds %"class.proxygen::HPACKHeader", ptr %2, i64 %conv
  ret ptr %add.ptr.i
}